target datalayout = "e-m:e-p270:32:32-p271:32:32-p272:64:64-i64:64-i128:128-f80:128-n8:16:32:64-S128"
target triple = "x86_64-pc-linux-gnu"

%struct.Abc_ManRes_t_ = type { i32, i32, ptr, i32, i32, i32, i32, ptr, i32, i32, ptr, ptr, ptr, ptr, ptr, ptr, ptr, ptr, ptr, ptr, ptr, i64, i64, i64, i64, i64, i64, i64, i64, i64, i64, i64, i64, i32, i32, i32, i32, i32, i32, i32, i32, i32, i32, i32, i32, i32, i32, i32, i32 }

@.str.17 = private unnamed_addr constant [5 x i8] c"%s =\00", align 1
@.str.19 = private unnamed_addr constant [11 x i8] c"%9.2f sec\0A\00", align 1
@.str.49 = private unnamed_addr constant [38 x i8] c"Used constants    = %6d.             \00", align 1
@.str.50 = private unnamed_addr constant [7 x i8] c"Cuts  \00", align 1
@.str.51 = private unnamed_addr constant [38 x i8] c"Used replacements = %6d.             \00", align 1
@.str.52 = private unnamed_addr constant [7 x i8] c"Resub \00", align 1
@.str.53 = private unnamed_addr constant [38 x i8] c"Used single ORs   = %6d.             \00", align 1
@.str.54 = private unnamed_addr constant [7 x i8] c" Div  \00", align 1
@.str.55 = private unnamed_addr constant [38 x i8] c"Used single ANDs  = %6d.             \00", align 1
@.str.56 = private unnamed_addr constant [7 x i8] c" Mffc \00", align 1
@.str.57 = private unnamed_addr constant [38 x i8] c"Used double ORs   = %6d.             \00", align 1
@.str.58 = private unnamed_addr constant [7 x i8] c" Sim  \00", align 1
@.str.59 = private unnamed_addr constant [38 x i8] c"Used double ANDs  = %6d.             \00", align 1
@.str.60 = private unnamed_addr constant [7 x i8] c" 1    \00", align 1
@.str.61 = private unnamed_addr constant [38 x i8] c"Used OR-AND       = %6d.             \00", align 1
@.str.62 = private unnamed_addr constant [7 x i8] c" D    \00", align 1
@.str.63 = private unnamed_addr constant [38 x i8] c"Used AND-OR       = %6d.             \00", align 1
@.str.64 = private unnamed_addr constant [7 x i8] c" 2    \00", align 1
@.str.65 = private unnamed_addr constant [38 x i8] c"Used OR-2ANDs     = %6d.             \00", align 1
@.str.66 = private unnamed_addr constant [7 x i8] c"Truth \00", align 1
@.str.67 = private unnamed_addr constant [38 x i8] c"Used AND-2ORs     = %6d.             \00", align 1
@.str.68 = private unnamed_addr constant [7 x i8] c"AIG   \00", align 1
@.str.69 = private unnamed_addr constant [38 x i8] c"TOTAL             = %6d.             \00", align 1
@.str.70 = private unnamed_addr constant [7 x i8] c"TOTAL \00", align 1
@.str.71 = private unnamed_addr constant [23 x i8] c"Total leaves   = %8d.\0A\00", align 1
@.str.72 = private unnamed_addr constant [23 x i8] c"Total divisors = %8d.\0A\00", align 1
@.str.73 = private unnamed_addr constant [35 x i8] c"Gain           = %8d. (%6.2f %%).\0A\00", align 1

; Function Attrs: nounwind uwtable
define internal void @Abc_ManResubPrint(ptr noundef %0) #0 {
  %2 = alloca ptr, align 8
  store ptr %0, ptr %2, align 8, !tbaa !146
  %3 = load ptr, ptr %2, align 8, !tbaa !146
  %4 = getelementptr inbounds nuw %struct.Abc_ManRes_t_, ptr %3, i32 0, i32 33
  %5 = load i32, ptr %4, align 8, !tbaa !192
  %6 = call i32 (ptr, ...) @printf(ptr noundef @.str.49, i32 noundef %5)
  call void (i32, ptr, ...) @Abc_Print(i32 noundef 1, ptr noundef @.str.17, ptr noundef @.str.50)
  %7 = load ptr, ptr %2, align 8, !tbaa !146
  %8 = getelementptr inbounds nuw %struct.Abc_ManRes_t_, ptr %7, i32 0, i32 21
  %9 = load i64, ptr %8, align 8, !tbaa !153
  %10 = sitofp i64 %9 to double
  %11 = fmul double 1.000000e+00, %10
  %12 = fdiv double %11, 1.000000e+06
  call void (i32, ptr, ...) @Abc_Print(i32 noundef 1, ptr noundef @.str.19, double noundef %12)
  %13 = load ptr, ptr %2, align 8, !tbaa !146
  %14 = getelementptr inbounds nuw %struct.Abc_ManRes_t_, ptr %13, i32 0, i32 34
  %15 = load i32, ptr %14, align 4, !tbaa !194
  %16 = call i32 (ptr, ...) @printf(ptr noundef @.str.51, i32 noundef %15)
  call void (i32, ptr, ...) @Abc_Print(i32 noundef 1, ptr noundef @.str.17, ptr noundef @.str.52)
  %17 = load ptr, ptr %2, align 8, !tbaa !146
  %18 = getelementptr inbounds nuw %struct.Abc_ManRes_t_, ptr %17, i32 0, i32 23
  %19 = load i64, ptr %18, align 8, !tbaa !156
  %20 = sitofp i64 %19 to double
  %21 = fmul double 1.000000e+00, %20
  %22 = fdiv double %21, 1.000000e+06
  call void (i32, ptr, ...) @Abc_Print(i32 noundef 1, ptr noundef @.str.19, double noundef %22)
  %23 = load ptr, ptr %2, align 8, !tbaa !146
  %24 = getelementptr inbounds nuw %struct.Abc_ManRes_t_, ptr %23, i32 0, i32 35
  %25 = load i32, ptr %24, align 8, !tbaa !198
  %26 = call i32 (ptr, ...) @printf(ptr noundef @.str.53, i32 noundef %25)
  call void (i32, ptr, ...) @Abc_Print(i32 noundef 1, ptr noundef @.str.17, ptr noundef @.str.54)
  %27 = load ptr, ptr %2, align 8, !tbaa !146
  %28 = getelementptr inbounds nuw %struct.Abc_ManRes_t_, ptr %27, i32 0, i32 24
  %29 = load i64, ptr %28, align 8, !tbaa !187
  %30 = sitofp i64 %29 to double
  %31 = fmul double 1.000000e+00, %30
  %32 = fdiv double %31, 1.000000e+06
  call void (i32, ptr, ...) @Abc_Print(i32 noundef 1, ptr noundef @.str.19, double noundef %32)
  %33 = load ptr, ptr %2, align 8, !tbaa !146
  %34 = getelementptr inbounds nuw %struct.Abc_ManRes_t_, ptr %33, i32 0, i32 36
  %35 = load i32, ptr %34, align 4, !tbaa !199
  %36 = call i32 (ptr, ...) @printf(ptr noundef @.str.55, i32 noundef %35)
  call void (i32, ptr, ...) @Abc_Print(i32 noundef 1, ptr noundef @.str.17, ptr noundef @.str.56)
  %37 = load ptr, ptr %2, align 8, !tbaa !146
  %38 = getelementptr inbounds nuw %struct.Abc_ManRes_t_, ptr %37, i32 0, i32 25
  %39 = load i64, ptr %38, align 8, !tbaa !186
  %40 = sitofp i64 %39 to double
  %41 = fmul double 1.000000e+00, %40
  %42 = fdiv double %41, 1.000000e+06
  call void (i32, ptr, ...) @Abc_Print(i32 noundef 1, ptr noundef @.str.19, double noundef %42)
  %43 = load ptr, ptr %2, align 8, !tbaa !146
  %44 = getelementptr inbounds nuw %struct.Abc_ManRes_t_, ptr %43, i32 0, i32 37
  %45 = load i32, ptr %44, align 8, !tbaa !200
  %46 = call i32 (ptr, ...) @printf(ptr noundef @.str.57, i32 noundef %45)
  call void (i32, ptr, ...) @Abc_Print(i32 noundef 1, ptr noundef @.str.17, ptr noundef @.str.58)
  %47 = load ptr, ptr %2, align 8, !tbaa !146
  %48 = getelementptr inbounds nuw %struct.Abc_ManRes_t_, ptr %47, i32 0, i32 26
  %49 = load i64, ptr %48, align 8, !tbaa !191
  %50 = sitofp i64 %49 to double
  %51 = fmul double 1.000000e+00, %50
  %52 = fdiv double %51, 1.000000e+06
  call void (i32, ptr, ...) @Abc_Print(i32 noundef 1, ptr noundef @.str.19, double noundef %52)
  %53 = load ptr, ptr %2, align 8, !tbaa !146
  %54 = getelementptr inbounds nuw %struct.Abc_ManRes_t_, ptr %53, i32 0, i32 38
  %55 = load i32, ptr %54, align 4, !tbaa !201
  %56 = call i32 (ptr, ...) @printf(ptr noundef @.str.59, i32 noundef %55)
  call void (i32, ptr, ...) @Abc_Print(i32 noundef 1, ptr noundef @.str.17, ptr noundef @.str.60)
  %57 = load ptr, ptr %2, align 8, !tbaa !146
  %58 = getelementptr inbounds nuw %struct.Abc_ManRes_t_, ptr %57, i32 0, i32 27
  %59 = load i64, ptr %58, align 8, !tbaa !193
  %60 = sitofp i64 %59 to double
  %61 = fmul double 1.000000e+00, %60
  %62 = fdiv double %61, 1.000000e+06
  call void (i32, ptr, ...) @Abc_Print(i32 noundef 1, ptr noundef @.str.19, double noundef %62)
  %63 = load ptr, ptr %2, align 8, !tbaa !146
  %64 = getelementptr inbounds nuw %struct.Abc_ManRes_t_, ptr %63, i32 0, i32 39
  %65 = load i32, ptr %64, align 8, !tbaa !202
  %66 = call i32 (ptr, ...) @printf(ptr noundef @.str.61, i32 noundef %65)
  call void (i32, ptr, ...) @Abc_Print(i32 noundef 1, ptr noundef @.str.17, ptr noundef @.str.62)
  %67 = load ptr, ptr %2, align 8, !tbaa !146
  %68 = getelementptr inbounds nuw %struct.Abc_ManRes_t_, ptr %67, i32 0, i32 28
  %69 = load i64, ptr %68, align 8, !tbaa !196
  %70 = sitofp i64 %69 to double
  %71 = fmul double 1.000000e+00, %70
  %72 = fdiv double %71, 1.000000e+06
  call void (i32, ptr, ...) @Abc_Print(i32 noundef 1, ptr noundef @.str.19, double noundef %72)
  %73 = load ptr, ptr %2, align 8, !tbaa !146
  %74 = getelementptr inbounds nuw %struct.Abc_ManRes_t_, ptr %73, i32 0, i32 40
  %75 = load i32, ptr %74, align 4, !tbaa !203
  %76 = call i32 (ptr, ...) @printf(ptr noundef @.str.63, i32 noundef %75)
  call void (i32, ptr, ...) @Abc_Print(i32 noundef 1, ptr noundef @.str.17, ptr noundef @.str.64)
  %77 = load ptr, ptr %2, align 8, !tbaa !146
  %78 = getelementptr inbounds nuw %struct.Abc_ManRes_t_, ptr %77, i32 0, i32 29
  %79 = load i64, ptr %78, align 8, !tbaa !195
  %80 = sitofp i64 %79 to double
  %81 = fmul double 1.000000e+00, %80
  %82 = fdiv double %81, 1.000000e+06
  call void (i32, ptr, ...) @Abc_Print(i32 noundef 1, ptr noundef @.str.19, double noundef %82)
  %83 = load ptr, ptr %2, align 8, !tbaa !146
  %84 = getelementptr inbounds nuw %struct.Abc_ManRes_t_, ptr %83, i32 0, i32 41
  %85 = load i32, ptr %84, align 8, !tbaa !204
  %86 = call i32 (ptr, ...) @printf(ptr noundef @.str.65, i32 noundef %85)
  call void (i32, ptr, ...) @Abc_Print(i32 noundef 1, ptr noundef @.str.17, ptr noundef @.str.66)
  %87 = load ptr, ptr %2, align 8, !tbaa !146
  %88 = getelementptr inbounds nuw %struct.Abc_ManRes_t_, ptr %87, i32 0, i32 22
  %89 = load i64, ptr %88, align 8, !tbaa !155
  %90 = sitofp i64 %89 to double
  %91 = fmul double 1.000000e+00, %90
  %92 = fdiv double %91, 1.000000e+06
  call void (i32, ptr, ...) @Abc_Print(i32 noundef 1, ptr noundef @.str.19, double noundef %92)
  %93 = load ptr, ptr %2, align 8, !tbaa !146
  %94 = getelementptr inbounds nuw %struct.Abc_ManRes_t_, ptr %93, i32 0, i32 42
  %95 = load i32, ptr %94, align 4, !tbaa !205
  %96 = call i32 (ptr, ...) @printf(ptr noundef @.str.67, i32 noundef %95)
  call void (i32, ptr, ...) @Abc_Print(i32 noundef 1, ptr noundef @.str.17, ptr noundef @.str.68)
  %97 = load ptr, ptr %2, align 8, !tbaa !146
  %98 = getelementptr inbounds nuw %struct.Abc_ManRes_t_, ptr %97, i32 0, i32 31
  %99 = load i64, ptr %98, align 8, !tbaa !159
  %100 = sitofp i64 %99 to double
  %101 = fmul double 1.000000e+00, %100
  %102 = fdiv double %101, 1.000000e+06
  call void (i32, ptr, ...) @Abc_Print(i32 noundef 1, ptr noundef @.str.19, double noundef %102)
  %103 = load ptr, ptr %2, align 8, !tbaa !146
  %104 = getelementptr inbounds nuw %struct.Abc_ManRes_t_, ptr %103, i32 0, i32 33
  %105 = load i32, ptr %104, align 8, !tbaa !192
  %106 = load ptr, ptr %2, align 8, !tbaa !146
  %107 = getelementptr inbounds nuw %struct.Abc_ManRes_t_, ptr %106, i32 0, i32 34
  %108 = load i32, ptr %107, align 4, !tbaa !194
  %109 = add nsw i32 %105, %108
  %110 = load ptr, ptr %2, align 8, !tbaa !146
  %111 = getelementptr inbounds nuw %struct.Abc_ManRes_t_, ptr %110, i32 0, i32 35
  %112 = load i32, ptr %111, align 8, !tbaa !198
  %113 = add nsw i32 %109, %112
  %114 = load ptr, ptr %2, align 8, !tbaa !146
  %115 = getelementptr inbounds nuw %struct.Abc_ManRes_t_, ptr %114, i32 0, i32 36
  %116 = load i32, ptr %115, align 4, !tbaa !199
  %117 = add nsw i32 %113, %116
  %118 = load ptr, ptr %2, align 8, !tbaa !146
  %119 = getelementptr inbounds nuw %struct.Abc_ManRes_t_, ptr %118, i32 0, i32 37
  %120 = load i32, ptr %119, align 8, !tbaa !200
  %121 = add nsw i32 %117, %120
  %122 = load ptr, ptr %2, align 8, !tbaa !146
  %123 = getelementptr inbounds nuw %struct.Abc_ManRes_t_, ptr %122, i32 0, i32 38
  %124 = load i32, ptr %123, align 4, !tbaa !201
  %125 = add nsw i32 %121, %124
  %126 = load ptr, ptr %2, align 8, !tbaa !146
  %127 = getelementptr inbounds nuw %struct.Abc_ManRes_t_, ptr %126, i32 0, i32 39
  %128 = load i32, ptr %127, align 8, !tbaa !202
  %129 = add nsw i32 %125, %128
  %130 = load ptr, ptr %2, align 8, !tbaa !146
  %131 = getelementptr inbounds nuw %struct.Abc_ManRes_t_, ptr %130, i32 0, i32 40
  %132 = load i32, ptr %131, align 4, !tbaa !203
  %133 = add nsw i32 %129, %132
  %134 = load ptr, ptr %2, align 8, !tbaa !146
  %135 = getelementptr inbounds nuw %struct.Abc_ManRes_t_, ptr %134, i32 0, i32 41
  %136 = load i32, ptr %135, align 8, !tbaa !204
  %137 = add nsw i32 %133, %136
  %138 = load ptr, ptr %2, align 8, !tbaa !146
  %139 = getelementptr inbounds nuw %struct.Abc_ManRes_t_, ptr %138, i32 0, i32 42
  %140 = load i32, ptr %139, align 4, !tbaa !205
  %141 = add nsw i32 %137, %140
  %142 = call i32 (ptr, ...) @printf(ptr noundef @.str.69, i32 noundef %141)
  call void (i32, ptr, ...) @Abc_Print(i32 noundef 1, ptr noundef @.str.17, ptr noundef @.str.70)
  %143 = load ptr, ptr %2, align 8, !tbaa !146
  %144 = getelementptr inbounds nuw %struct.Abc_ManRes_t_, ptr %143, i32 0, i32 32
  %145 = load i64, ptr %144, align 8, !tbaa !161
  %146 = sitofp i64 %145 to double
  %147 = fmul double 1.000000e+00, %146
  %148 = fdiv double %147, 1.000000e+06
  call void (i32, ptr, ...) @Abc_Print(i32 noundef 1, ptr noundef @.str.19, double noundef %148)
  %149 = load ptr, ptr %2, align 8, !tbaa !146
  %150 = getelementptr inbounds nuw %struct.Abc_ManRes_t_, ptr %149, i32 0, i32 45
  %151 = load i32, ptr %150, align 8, !tbaa !190
  %152 = call i32 (ptr, ...) @printf(ptr noundef @.str.71, i32 noundef %151)
  %153 = load ptr, ptr %2, align 8, !tbaa !146
  %154 = getelementptr inbounds nuw %struct.Abc_ManRes_t_, ptr %153, i32 0, i32 44
  %155 = load i32, ptr %154, align 4, !tbaa !189
  %156 = call i32 (ptr, ...) @printf(ptr noundef @.str.72, i32 noundef %155)
  %157 = load ptr, ptr %2, align 8, !tbaa !146
  %158 = getelementptr inbounds nuw %struct.Abc_ManRes_t_, ptr %157, i32 0, i32 47
  %159 = load i32, ptr %158, align 8, !tbaa !151
  %160 = load ptr, ptr %2, align 8, !tbaa !146
  %161 = getelementptr inbounds nuw %struct.Abc_ManRes_t_, ptr %160, i32 0, i32 48
  %162 = load i32, ptr %161, align 4, !tbaa !162
  %163 = sub nsw i32 %159, %162
  %164 = load ptr, ptr %2, align 8, !tbaa !146
  %165 = getelementptr inbounds nuw %struct.Abc_ManRes_t_, ptr %164, i32 0, i32 47
  %166 = load i32, ptr %165, align 8, !tbaa !151
  %167 = load ptr, ptr %2, align 8, !tbaa !146
  %168 = getelementptr inbounds nuw %struct.Abc_ManRes_t_, ptr %167, i32 0, i32 48
  %169 = load i32, ptr %168, align 4, !tbaa !162
  %170 = sub nsw i32 %166, %169
  %171 = sitofp i32 %170 to double
  %172 = fmul double 1.000000e+02, %171
  %173 = load ptr, ptr %2, align 8, !tbaa !146
  %174 = getelementptr inbounds nuw %struct.Abc_ManRes_t_, ptr %173, i32 0, i32 47
  %175 = load i32, ptr %174, align 8, !tbaa !151
  %176 = sitofp i32 %175 to double
  %177 = fdiv double %172, %176
  %178 = call i32 (ptr, ...) @printf(ptr noundef @.str.73, i32 noundef %163, double noundef %177)
  ret void
}