; Function Attrs: nounwind uwtable
define internal fastcc void @Abc_ManResubPrint(ptr noundef readonly captures(none) %0) unnamed_addr #0 {
  %2 = getelementptr inbounds nuw i8, ptr %0, i64 232
  %3 = load i32, ptr %2, align 8, !tbaa !187
  %4 = tail call i32 (ptr, ...) @printf(ptr noundef nonnull dereferenceable(1) @.str.49, i32 noundef %3)
  tail call void (i32, ptr, ...) @Abc_Print(i32 poison, ptr noundef nonnull @.str.17, ptr noundef nonnull @.str.50)
  %5 = getelementptr inbounds nuw i8, ptr %0, i64 136
  %6 = load i64, ptr %5, align 8, !tbaa !133
  %7 = sitofp i64 %6 to double
  %8 = fdiv double %7, 1.000000e+06
  tail call void (i32, ptr, ...) @Abc_Print(i32 poison, ptr noundef nonnull @.str.19, double noundef %8)
  %9 = getelementptr inbounds nuw i8, ptr %0, i64 236
  %10 = load i32, ptr %9, align 4, !tbaa !194
  %11 = tail call i32 (ptr, ...) @printf(ptr noundef nonnull dereferenceable(1) @.str.51, i32 noundef %10)
  tail call void (i32, ptr, ...) @Abc_Print(i32 poison, ptr noundef nonnull @.str.17, ptr noundef nonnull @.str.52)
  %12 = getelementptr inbounds nuw i8, ptr %0, i64 152
  %13 = load i64, ptr %12, align 8, !tbaa !136
  %14 = sitofp i64 %13 to double
  %15 = fdiv double %14, 1.000000e+06
  tail call void (i32, ptr, ...) @Abc_Print(i32 poison, ptr noundef nonnull @.str.19, double noundef %15)
  %16 = getelementptr inbounds nuw i8, ptr %0, i64 240
  %17 = load i32, ptr %16, align 8, !tbaa !206
  %18 = tail call i32 (ptr, ...) @printf(ptr noundef nonnull dereferenceable(1) @.str.53, i32 noundef %17)
  tail call void (i32, ptr, ...) @Abc_Print(i32 poison, ptr noundef nonnull @.str.17, ptr noundef nonnull @.str.54)
  %19 = getelementptr inbounds nuw i8, ptr %0, i64 160
  %20 = load i64, ptr %19, align 8, !tbaa !175
  %21 = sitofp i64 %20 to double
  %22 = fdiv double %21, 1.000000e+06
  tail call void (i32, ptr, ...) @Abc_Print(i32 poison, ptr noundef nonnull @.str.19, double noundef %22)
  %23 = getelementptr inbounds nuw i8, ptr %0, i64 244
  %24 = load i32, ptr %23, align 4, !tbaa !211
  %25 = tail call i32 (ptr, ...) @printf(ptr noundef nonnull dereferenceable(1) @.str.55, i32 noundef %24)
  tail call void (i32, ptr, ...) @Abc_Print(i32 poison, ptr noundef nonnull @.str.17, ptr noundef nonnull @.str.56)
  %26 = getelementptr inbounds nuw i8, ptr %0, i64 168
  %27 = load i64, ptr %26, align 8, !tbaa !166
  %28 = sitofp i64 %27 to double
  %29 = fdiv double %28, 1.000000e+06
  tail call void (i32, ptr, ...) @Abc_Print(i32 poison, ptr noundef nonnull @.str.19, double noundef %29)
  %30 = getelementptr inbounds nuw i8, ptr %0, i64 248
  %31 = load i32, ptr %30, align 8, !tbaa !215
  %32 = tail call i32 (ptr, ...) @printf(ptr noundef nonnull dereferenceable(1) @.str.57, i32 noundef %31)
  tail call void (i32, ptr, ...) @Abc_Print(i32 poison, ptr noundef nonnull @.str.17, ptr noundef nonnull @.str.58)
  %33 = getelementptr inbounds nuw i8, ptr %0, i64 176
  %34 = load i64, ptr %33, align 8, !tbaa !185
  %35 = sitofp i64 %34 to double
  %36 = fdiv double %35, 1.000000e+06
  tail call void (i32, ptr, ...) @Abc_Print(i32 poison, ptr noundef nonnull @.str.19, double noundef %36)
  %37 = getelementptr inbounds nuw i8, ptr %0, i64 252
  %38 = load i32, ptr %37, align 4, !tbaa !216
  %39 = tail call i32 (ptr, ...) @printf(ptr noundef nonnull dereferenceable(1) @.str.59, i32 noundef %38)
  tail call void (i32, ptr, ...) @Abc_Print(i32 poison, ptr noundef nonnull @.str.17, ptr noundef nonnull @.str.60)
  %40 = getelementptr inbounds nuw i8, ptr %0, i64 184
  %41 = load i64, ptr %40, align 8, !tbaa !193
  %42 = sitofp i64 %41 to double
  %43 = fdiv double %42, 1.000000e+06
  tail call void (i32, ptr, ...) @Abc_Print(i32 poison, ptr noundef nonnull @.str.19, double noundef %43)
  %44 = getelementptr inbounds nuw i8, ptr %0, i64 256
  %45 = load i32, ptr %44, align 8, !tbaa !217
  %46 = tail call i32 (ptr, ...) @printf(ptr noundef nonnull dereferenceable(1) @.str.61, i32 noundef %45)
  tail call void (i32, ptr, ...) @Abc_Print(i32 poison, ptr noundef nonnull @.str.17, ptr noundef nonnull @.str.62)
  %47 = getelementptr inbounds nuw i8, ptr %0, i64 192
  %48 = load i64, ptr %47, align 8, !tbaa !213
  %49 = sitofp i64 %48 to double
  %50 = fdiv double %49, 1.000000e+06
  tail call void (i32, ptr, ...) @Abc_Print(i32 poison, ptr noundef nonnull @.str.19, double noundef %50)
  %51 = getelementptr inbounds nuw i8, ptr %0, i64 260
  %52 = load i32, ptr %51, align 4, !tbaa !218
  %53 = tail call i32 (ptr, ...) @printf(ptr noundef nonnull dereferenceable(1) @.str.63, i32 noundef %52)
  tail call void (i32, ptr, ...) @Abc_Print(i32 poison, ptr noundef nonnull @.str.17, ptr noundef nonnull @.str.64)
  %54 = getelementptr inbounds nuw i8, ptr %0, i64 200
  %55 = load i64, ptr %54, align 8, !tbaa !212
  %56 = sitofp i64 %55 to double
  %57 = fdiv double %56, 1.000000e+06
  tail call void (i32, ptr, ...) @Abc_Print(i32 poison, ptr noundef nonnull @.str.19, double noundef %57)
  %58 = getelementptr inbounds nuw i8, ptr %0, i64 264
  %59 = load i32, ptr %58, align 8, !tbaa !219
  %60 = tail call i32 (ptr, ...) @printf(ptr noundef nonnull dereferenceable(1) @.str.65, i32 noundef %59)
  tail call void (i32, ptr, ...) @Abc_Print(i32 poison, ptr noundef nonnull @.str.17, ptr noundef nonnull @.str.66)
  %61 = getelementptr inbounds nuw i8, ptr %0, i64 144
  %62 = load i64, ptr %61, align 8, !tbaa !135
  %63 = sitofp i64 %62 to double
  %64 = fdiv double %63, 1.000000e+06
  tail call void (i32, ptr, ...) @Abc_Print(i32 poison, ptr noundef nonnull @.str.19, double noundef %64)
  %65 = getelementptr inbounds nuw i8, ptr %0, i64 268
  %66 = load i32, ptr %65, align 4, !tbaa !220
  %67 = tail call i32 (ptr, ...) @printf(ptr noundef nonnull dereferenceable(1) @.str.67, i32 noundef %66)
  tail call void (i32, ptr, ...) @Abc_Print(i32 poison, ptr noundef nonnull @.str.17, ptr noundef nonnull @.str.68)
  %68 = getelementptr inbounds nuw i8, ptr %0, i64 216
  %69 = load i64, ptr %68, align 8, !tbaa !139
  %70 = sitofp i64 %69 to double
  %71 = fdiv double %70, 1.000000e+06
  tail call void (i32, ptr, ...) @Abc_Print(i32 poison, ptr noundef nonnull @.str.19, double noundef %71)
  %72 = load i32, ptr %2, align 8, !tbaa !187
  %73 = load i32, ptr %9, align 4, !tbaa !194
  %74 = add nsw i32 %73, %72
  %75 = load i32, ptr %16, align 8, !tbaa !206
  %76 = add nsw i32 %74, %75
  %77 = load i32, ptr %23, align 4, !tbaa !211
  %78 = add nsw i32 %76, %77
  %79 = load i32, ptr %30, align 8, !tbaa !215
  %80 = add nsw i32 %78, %79
  %81 = load i32, ptr %37, align 4, !tbaa !216
  %82 = add nsw i32 %80, %81
  %83 = load i32, ptr %44, align 8, !tbaa !217
  %84 = add nsw i32 %82, %83
  %85 = load i32, ptr %51, align 4, !tbaa !218
  %86 = add nsw i32 %84, %85
  %87 = load i32, ptr %58, align 8, !tbaa !219
  %88 = add nsw i32 %86, %87
  %89 = load i32, ptr %65, align 4, !tbaa !220
  %90 = add nsw i32 %88, %89
  %91 = tail call i32 (ptr, ...) @printf(ptr noundef nonnull dereferenceable(1) @.str.69, i32 noundef %90)
  tail call void (i32, ptr, ...) @Abc_Print(i32 poison, ptr noundef nonnull @.str.17, ptr noundef nonnull @.str.70)
  %92 = getelementptr inbounds nuw i8, ptr %0, i64 224
  %93 = load i64, ptr %92, align 8, !tbaa !141
  %94 = sitofp i64 %93 to double
  %95 = fdiv double %94, 1.000000e+06
  tail call void (i32, ptr, ...) @Abc_Print(i32 poison, ptr noundef nonnull @.str.19, double noundef %95)
  %96 = getelementptr inbounds nuw i8, ptr %0, i64 280
  %97 = load i32, ptr %96, align 8, !tbaa !177
  %98 = tail call i32 (ptr, ...) @printf(ptr noundef nonnull dereferenceable(1) @.str.71, i32 noundef %97)
  %99 = getelementptr inbounds nuw i8, ptr %0, i64 276
  %100 = load i32, ptr %99, align 4, !tbaa !176
  %101 = tail call i32 (ptr, ...) @printf(ptr noundef nonnull dereferenceable(1) @.str.72, i32 noundef %100)
  %102 = getelementptr inbounds nuw i8, ptr %0, i64 288
  %103 = load i32, ptr %102, align 8, !tbaa !131
  %104 = getelementptr inbounds nuw i8, ptr %0, i64 292
  %105 = load i32, ptr %104, align 4, !tbaa !142
  %106 = sub nsw i32 %103, %105
  %107 = sitofp i32 %106 to double
  %108 = fmul double %107, 1.000000e+02
  %109 = sitofp i32 %103 to double
  %110 = fdiv double %108, %109
  %111 = tail call i32 (ptr, ...) @printf(ptr noundef nonnull dereferenceable(1) @.str.73, i32 noundef %106, double noundef %110)
  ret void
}